; Function Attrs: mustprogress nounwind uwtable
define hidden noundef i32 @_ZN6hermes2vm9CodeBlock21findCatchTargetOffsetEj(ptr noundef nonnull readonly align 8 captures(none) dereferenceable(40) %this, i32 noundef %exceptionOffset) local_unnamed_addr #0 align 2 {
entry:
  %0 = load ptr, ptr %this, align 8
  %bcProvider_.i = getelementptr inbounds nuw i8, ptr %0, i64 80
  %1 = load ptr, ptr %bcProvider_.i, align 8
  %functionID_ = getelementptr inbounds nuw i8, ptr %this, i64 24
  %2 = load i32, ptr %functionID_, align 8
  %call2 = tail call noundef i32 @_ZNK6hermes3hbc14BCProviderBase21findCatchTargetOffsetEjj(ptr noundef nonnull align 8 dereferenceable(280) %1, i32 noundef %2, i32 noundef %exceptionOffset) #7
  ret i32 %call2
}